; Function Attrs: mustprogress nounwind uwtable
define hidden void @_ZN6Assimp11AMFImporterC2Ev(ptr noundef nonnull align 8 dereferenceable(224) %0) unnamed_addr #3 align 2 personality ptr @__gxx_personality_v0 {
  tail call void @_ZN6Assimp12BaseImporterC2Ev(ptr noundef nonnull align 8 dereferenceable(72) %0) #31
  store ptr getelementptr inbounds nuw inrange(-16, 48) (i8, ptr @_ZTVN6Assimp11AMFImporterE, i64 16), ptr %0, align 8
  %2 = getelementptr inbounds nuw i8, ptr %0, i64 72
  store ptr null, ptr %2, align 8
  %3 = getelementptr inbounds nuw i8, ptr %0, i64 80
  %4 = getelementptr inbounds nuw i8, ptr %0, i64 88
  store ptr %3, ptr %4, align 8
  store ptr %3, ptr %3, align 8
  %5 = getelementptr inbounds nuw i8, ptr %0, i64 96
  %6 = getelementptr inbounds nuw i8, ptr %0, i64 112
  %7 = getelementptr inbounds nuw i8, ptr %0, i64 128
  tail call void @llvm.memset.p0.i64(ptr noundef nonnull align 8 dereferenceable(16) %5, i8 0, i64 16, i1 false)
  store ptr %7, ptr %6, align 8
  %8 = getelementptr inbounds nuw i8, ptr %0, i64 120
  store i64 0, ptr %8, align 8
  store i8 0, ptr %7, align 8
  %9 = getelementptr inbounds nuw i8, ptr %0, i64 144
  %10 = getelementptr inbounds nuw i8, ptr %0, i64 160
  store ptr %10, ptr %9, align 8
  %11 = getelementptr inbounds nuw i8, ptr %0, i64 152
  store i64 0, ptr %11, align 8
  store i8 0, ptr %10, align 8
  %12 = getelementptr inbounds nuw i8, ptr %0, i64 176
  %13 = getelementptr inbounds nuw i8, ptr %0, i64 184
  store ptr %12, ptr %13, align 8
  store ptr %12, ptr %12, align 8
  %14 = getelementptr inbounds nuw i8, ptr %0, i64 192
  store i64 0, ptr %14, align 8
  %15 = getelementptr inbounds nuw i8, ptr %0, i64 200
  %16 = getelementptr inbounds nuw i8, ptr %0, i64 208
  store ptr %15, ptr %16, align 8
  store ptr %15, ptr %15, align 8
  %17 = getelementptr inbounds nuw i8, ptr %0, i64 216
  store i64 0, ptr %17, align 8
  ret void
}